(dp1
S'last_name'
p2
S'John'
p3
sS'weight'
p4
S'140'
p5
sS'age'
p6
S'12 Y 4M'
p7
sS'bmi'
p8
S'23'
p9
sS'height'
p10
S'6.2'
p11
sS'given_name'
p12
S'Robert'
p13
sS'village'
p14
S'patna'
p15
sS'id'
p16
S'435769'
p17
s.