(dp1
S'last_name'
p2
S'bill'
p3
sS'weight'
p4
S'155'
p5
sS'age'
p6
S'11 Y 3M'
p7
sS'bmi'
p8
S'27.2'
p9
sS'height'
p10
S'5.8'
p11
sS'given_name'
p12
S'james'
p13
sS'village'
p14
S'santa cruz'
p15
sS'id'
p16
S'935682'
p17
s.