(dp1
S'last_name'
p2
S'Steve'
p3
sS'weight'
p4
S'90'
p5
sS'age'
p6
S'9 Y 6M'
p7
sS'bmi'
p8
S'24.3'
p9
sS'height'
p10
S'5.8'
p11
sS'given_name'
p12
S'Alex'
p13
sS'village'
p14
S'hinkal'
p15
sS'id'
p16
S'882934'
p17
s.