(dp1
S'last_name'
p2
S'Sarpangala'
p3
sS'weight'
p4
S'120'
p5
sS'age'
p6
S'12 Y 9M'
p7
sS'bmi'
p8
S'20.2'
p9
sS'height'
p10
S'5.10'
p11
sS'given_name'
p12
S'Ranjan'
p13
sS'village'
p14
S'bogadi'
p15
sS'id'
p16
S'12345'
p17
s.